; Function Attrs: nounwind uwtable
define noalias noundef nonnull ptr @l_Lean_withTraceNodeBefore___at___private_Lean_Elab_PreDefinition_Structural_IndPred_0__Lean_Elab_Structural_replaceIndPredRecApp___spec__9___lambda__2___boxed(ptr noundef readonly captures(none) %0) local_unnamed_addr #0 {
  %2 = load ptr, ptr %0, align 8, !tbaa !9
  %3 = getelementptr inbounds nuw i8, ptr %0, i64 8
  %4 = load ptr, ptr %3, align 8, !tbaa !9
  %5 = getelementptr inbounds nuw i8, ptr %0, i64 16
  %6 = load ptr, ptr %5, align 8, !tbaa !9
  %7 = getelementptr inbounds nuw i8, ptr %0, i64 24
  %8 = load ptr, ptr %7, align 8, !tbaa !9
  %9 = getelementptr inbounds nuw i8, ptr %0, i64 32
  %10 = load ptr, ptr %9, align 8, !tbaa !9
  %11 = getelementptr inbounds nuw i8, ptr %0, i64 40
  %12 = load ptr, ptr %11, align 8, !tbaa !9
  %13 = getelementptr inbounds nuw i8, ptr %0, i64 48
  %14 = load ptr, ptr %13, align 8, !tbaa !9
  %15 = getelementptr inbounds nuw i8, ptr %0, i64 56
  %16 = load ptr, ptr %15, align 8, !tbaa !9
  %17 = getelementptr inbounds nuw i8, ptr %0, i64 64
  %18 = load ptr, ptr %17, align 8, !tbaa !9
  %19 = getelementptr inbounds nuw i8, ptr %0, i64 72
  %20 = load ptr, ptr %19, align 8, !tbaa !9
  %21 = getelementptr inbounds nuw i8, ptr %0, i64 80
  %22 = load ptr, ptr %21, align 8, !tbaa !9
  %23 = getelementptr inbounds nuw i8, ptr %0, i64 88
  %24 = load ptr, ptr %23, align 8, !tbaa !9
  %25 = getelementptr inbounds nuw i8, ptr %0, i64 96
  %26 = load ptr, ptr %25, align 8, !tbaa !9
  %27 = getelementptr inbounds nuw i8, ptr %0, i64 104
  %28 = load ptr, ptr %27, align 8, !tbaa !9
  %29 = getelementptr inbounds nuw i8, ptr %0, i64 112
  %30 = load ptr, ptr %29, align 8, !tbaa !9
  %31 = getelementptr inbounds nuw i8, ptr %0, i64 120
  %32 = load ptr, ptr %31, align 8, !tbaa !9
  %33 = getelementptr inbounds nuw i8, ptr %0, i64 128
  %34 = load ptr, ptr %33, align 8, !tbaa !9
  %35 = ptrtoint ptr %8 to i64
  %36 = lshr i64 %35, 1
  %37 = trunc i64 %36 to i8
  %38 = and i64 %35, 1
  %.not = icmp eq i64 %38, 0
  br i1 %.not, label %39, label %lean_dec.exit56

39:                                               ; preds = %1
  %40 = load i32, ptr %8, align 4, !tbaa !4
  %41 = icmp sgt i32 %40, 1
  br i1 %41, label %42, label %44, !prof !15

42:                                               ; preds = %39
  %43 = add nsw i32 %40, -1
  store i32 %43, ptr %8, align 4, !tbaa !4
  br label %lean_dec.exit56

44:                                               ; preds = %39
  %.not.i = icmp eq i32 %40, 0
  br i1 %.not.i, label %lean_dec.exit56, label %45

45:                                               ; preds = %44
  tail call void @lean_dec_ref_cold(ptr noundef nonnull %8) #4
  br label %lean_dec.exit56

lean_dec.exit56:                                  ; preds = %45, %44, %42, %1
  %46 = ptrtoint ptr %16 to i64
  %47 = lshr i64 %46, 1
  %48 = trunc i64 %47 to i8
  %49 = and i64 %46, 1
  %.not76 = icmp eq i64 %49, 0
  br i1 %.not76, label %50, label %lean_dec.exit55

50:                                               ; preds = %lean_dec.exit56
  %51 = load i32, ptr %16, align 4, !tbaa !4
  %52 = icmp sgt i32 %51, 1
  br i1 %52, label %53, label %55, !prof !15

53:                                               ; preds = %50
  %54 = add nsw i32 %51, -1
  store i32 %54, ptr %16, align 4, !tbaa !4
  br label %lean_dec.exit55

55:                                               ; preds = %50
  %.not.i57 = icmp eq i32 %51, 0
  br i1 %.not.i57, label %lean_dec.exit55, label %56

56:                                               ; preds = %55
  tail call void @lean_dec_ref_cold(ptr noundef nonnull %16) #4
  br label %lean_dec.exit55

lean_dec.exit55:                                  ; preds = %56, %55, %53, %lean_dec.exit56
  %57 = getelementptr i8, ptr %18, i64 8
  %.val75 = load double, ptr %57, align 8, !tbaa !16
  %58 = ptrtoint ptr %18 to i64
  %59 = and i64 %58, 1
  %.not77 = icmp eq i64 %59, 0
  br i1 %.not77, label %60, label %lean_dec.exit54

60:                                               ; preds = %lean_dec.exit55
  %61 = load i32, ptr %18, align 4, !tbaa !4
  %62 = icmp sgt i32 %61, 1
  br i1 %62, label %63, label %65, !prof !15

63:                                               ; preds = %60
  %64 = add nsw i32 %61, -1
  store i32 %64, ptr %18, align 4, !tbaa !4
  br label %lean_dec.exit54

65:                                               ; preds = %60
  %.not.i59 = icmp eq i32 %61, 0
  br i1 %.not.i59, label %lean_dec.exit54, label %66

66:                                               ; preds = %65
  tail call void @lean_dec_ref_cold(ptr noundef nonnull %18) #4
  br label %lean_dec.exit54

lean_dec.exit54:                                  ; preds = %66, %65, %63, %lean_dec.exit55
  %67 = getelementptr i8, ptr %20, i64 8
  %.val = load double, ptr %67, align 8, !tbaa !16
  %68 = ptrtoint ptr %20 to i64
  %69 = and i64 %68, 1
  %.not78 = icmp eq i64 %69, 0
  br i1 %.not78, label %70, label %lean_dec.exit53

70:                                               ; preds = %lean_dec.exit54
  %71 = load i32, ptr %20, align 4, !tbaa !4
  %72 = icmp sgt i32 %71, 1
  br i1 %72, label %73, label %75, !prof !15

73:                                               ; preds = %70
  %74 = add nsw i32 %71, -1
  store i32 %74, ptr %20, align 4, !tbaa !4
  br label %lean_dec.exit53

75:                                               ; preds = %70
  %.not.i61 = icmp eq i32 %71, 0
  br i1 %.not.i61, label %lean_dec.exit53, label %76

76:                                               ; preds = %75
  tail call void @lean_dec_ref_cold(ptr noundef nonnull %20) #4
  br label %lean_dec.exit53

lean_dec.exit53:                                  ; preds = %76, %75, %73, %lean_dec.exit54
  %77 = tail call ptr @l_Lean_withTraceNodeBefore___at___private_Lean_Elab_PreDefinition_Structural_IndPred_0__Lean_Elab_Structural_replaceIndPredRecApp___spec__9___lambda__2(ptr noundef %2, ptr noundef %4, ptr noundef %6, i8 noundef zeroext %37, ptr noundef %10, ptr noundef %12, ptr noundef %14, i8 noundef zeroext %48, double noundef %.val75, double noundef %.val, ptr poison, ptr poison, ptr noundef %26, ptr noundef %28, ptr noundef %30, ptr noundef %32, ptr noundef %34)
  %78 = ptrtoint ptr %32 to i64
  %79 = and i64 %78, 1
  %.not79 = icmp eq i64 %79, 0
  br i1 %.not79, label %80, label %lean_dec.exit52

80:                                               ; preds = %lean_dec.exit53
  %81 = load i32, ptr %32, align 4, !tbaa !4
  %82 = icmp sgt i32 %81, 1
  br i1 %82, label %83, label %85, !prof !15

83:                                               ; preds = %80
  %84 = add nsw i32 %81, -1
  store i32 %84, ptr %32, align 4, !tbaa !4
  br label %lean_dec.exit52

85:                                               ; preds = %80
  %.not.i63 = icmp eq i32 %81, 0
  br i1 %.not.i63, label %lean_dec.exit52, label %86

86:                                               ; preds = %85
  tail call void @lean_dec_ref_cold(ptr noundef nonnull %32) #4
  br label %lean_dec.exit52

lean_dec.exit52:                                  ; preds = %86, %85, %83, %lean_dec.exit53
  %87 = ptrtoint ptr %28 to i64
  %88 = and i64 %87, 1
  %.not80 = icmp eq i64 %88, 0
  br i1 %.not80, label %89, label %lean_dec.exit51

89:                                               ; preds = %lean_dec.exit52
  %90 = load i32, ptr %28, align 4, !tbaa !4
  %91 = icmp sgt i32 %90, 1
  br i1 %91, label %92, label %94, !prof !15

92:                                               ; preds = %89
  %93 = add nsw i32 %90, -1
  store i32 %93, ptr %28, align 4, !tbaa !4
  br label %lean_dec.exit51

94:                                               ; preds = %89
  %.not.i65 = icmp eq i32 %90, 0
  br i1 %.not.i65, label %lean_dec.exit51, label %95

95:                                               ; preds = %94
  tail call void @lean_dec_ref_cold(ptr noundef nonnull %28) #4
  br label %lean_dec.exit51

lean_dec.exit51:                                  ; preds = %95, %94, %92, %lean_dec.exit52
  %96 = ptrtoint ptr %26 to i64
  %97 = and i64 %96, 1
  %.not81 = icmp eq i64 %97, 0
  br i1 %.not81, label %98, label %lean_dec.exit50

98:                                               ; preds = %lean_dec.exit51
  %99 = load i32, ptr %26, align 4, !tbaa !4
  %100 = icmp sgt i32 %99, 1
  br i1 %100, label %101, label %103, !prof !15

101:                                              ; preds = %98
  %102 = add nsw i32 %99, -1
  store i32 %102, ptr %26, align 4, !tbaa !4
  br label %lean_dec.exit50

103:                                              ; preds = %98
  %.not.i67 = icmp eq i32 %99, 0
  br i1 %.not.i67, label %lean_dec.exit50, label %104

104:                                              ; preds = %103
  tail call void @lean_dec_ref_cold(ptr noundef nonnull %26) #4
  br label %lean_dec.exit50

lean_dec.exit50:                                  ; preds = %104, %103, %101, %lean_dec.exit51
  %105 = ptrtoint ptr %24 to i64
  %106 = and i64 %105, 1
  %.not82 = icmp eq i64 %106, 0
  br i1 %.not82, label %107, label %lean_dec.exit49

107:                                              ; preds = %lean_dec.exit50
  %108 = load i32, ptr %24, align 4, !tbaa !4
  %109 = icmp sgt i32 %108, 1
  br i1 %109, label %110, label %112, !prof !15

110:                                              ; preds = %107
  %111 = add nsw i32 %108, -1
  store i32 %111, ptr %24, align 4, !tbaa !4
  br label %lean_dec.exit49

112:                                              ; preds = %107
  %.not.i69 = icmp eq i32 %108, 0
  br i1 %.not.i69, label %lean_dec.exit49, label %113

113:                                              ; preds = %112
  tail call void @lean_dec_ref_cold(ptr noundef nonnull %24) #4
  br label %lean_dec.exit49

lean_dec.exit49:                                  ; preds = %113, %112, %110, %lean_dec.exit50
  %114 = ptrtoint ptr %22 to i64
  %115 = and i64 %114, 1
  %.not83 = icmp eq i64 %115, 0
  br i1 %.not83, label %116, label %lean_dec.exit48

116:                                              ; preds = %lean_dec.exit49
  %117 = load i32, ptr %22, align 4, !tbaa !4
  %118 = icmp sgt i32 %117, 1
  br i1 %118, label %119, label %121, !prof !15

119:                                              ; preds = %116
  %120 = add nsw i32 %117, -1
  store i32 %120, ptr %22, align 4, !tbaa !4
  br label %lean_dec.exit48

121:                                              ; preds = %116
  %.not.i71 = icmp eq i32 %117, 0
  br i1 %.not.i71, label %lean_dec.exit48, label %122

122:                                              ; preds = %121
  tail call void @lean_dec_ref_cold(ptr noundef nonnull %22) #4
  br label %lean_dec.exit48

lean_dec.exit48:                                  ; preds = %122, %121, %119, %lean_dec.exit49
  %123 = ptrtoint ptr %2 to i64
  %124 = and i64 %123, 1
  %.not84 = icmp eq i64 %124, 0
  br i1 %.not84, label %125, label %lean_dec.exit

125:                                              ; preds = %lean_dec.exit48
  %126 = load i32, ptr %2, align 4, !tbaa !4
  %127 = icmp sgt i32 %126, 1
  br i1 %127, label %128, label %130, !prof !15

128:                                              ; preds = %125
  %129 = add nsw i32 %126, -1
  store i32 %129, ptr %2, align 4, !tbaa !4
  br label %lean_dec.exit

130:                                              ; preds = %125
  %.not.i73 = icmp eq i32 %126, 0
  br i1 %.not.i73, label %lean_dec.exit, label %131

131:                                              ; preds = %130
  tail call void @lean_dec_ref_cold(ptr noundef nonnull %2) #4
  br label %lean_dec.exit

lean_dec.exit:                                    ; preds = %131, %130, %128, %lean_dec.exit48
  ret ptr %77
}